target datalayout = "e-m:e-p270:32:32-p271:32:32-p272:64:64-i64:64-i128:128-f80:128-n8:16:32:64-S128"
target triple = "x86_64-pc-linux-gnu"

%struct.gmx_ana_selparam_t = type { ptr, %struct.gmx_ana_selvalue_t, ptr, i32 }
%struct.gmx_ana_selvalue_t = type { i32, i32, %union.anon, i32 }
%union.anon = type { ptr }
%struct.t_methoddata_pos = type { ptr, %struct.gmx_ana_index_t, ptr, i8, ptr, i32 }
%struct.gmx_ana_index_t = type { i32, ptr, i32 }

; Function Attrs: mustprogress uwtable
define internal void @_ZL10init_kwposPK10gmx_mtop_tiP18gmx_ana_selparam_tPv(ptr noundef %0, i32 noundef %1, ptr noundef %2, ptr noundef %3) #0 {
  %5 = alloca ptr, align 8
  %6 = alloca i32, align 4
  %7 = alloca ptr, align 8
  %8 = alloca ptr, align 8
  %9 = alloca ptr, align 8
  store ptr %0, ptr %5, align 8, !tbaa !26
  store i32 %1, ptr %6, align 4, !tbaa !4
  store ptr %2, ptr %7, align 8, !tbaa !8
  store ptr %3, ptr %8, align 8, !tbaa !11
  call void @llvm.lifetime.start.p0(i64 8, ptr %9) #6
  %10 = load ptr, ptr %8, align 8, !tbaa !11
  store ptr %10, ptr %9, align 8, !tbaa !11
  %11 = load ptr, ptr %7, align 8, !tbaa !8
  %12 = getelementptr inbounds %struct.gmx_ana_selparam_t, ptr %11, i64 0
  %13 = getelementptr inbounds nuw %struct.gmx_ana_selparam_t, ptr %12, i32 0, i32 3
  %14 = load i32, ptr %13, align 8, !tbaa !28
  %15 = and i32 %14, 4
  %16 = icmp ne i32 %15, 0
  br i1 %16, label %22, label %17

17:                                               ; preds = %4
  %18 = load ptr, ptr %9, align 8, !tbaa !11
  %19 = getelementptr inbounds nuw %struct.t_methoddata_pos, ptr %18, i32 0, i32 5
  %20 = load i32, ptr %19, align 8, !tbaa !23
  %21 = and i32 %20, -49
  store i32 %21, ptr %19, align 8, !tbaa !23
  br label %34

22:                                               ; preds = %4
  %23 = load ptr, ptr %9, align 8, !tbaa !11
  %24 = getelementptr inbounds nuw %struct.t_methoddata_pos, ptr %23, i32 0, i32 5
  %25 = load i32, ptr %24, align 8, !tbaa !23
  %26 = and i32 %25, 32
  %27 = icmp ne i32 %26, 0
  br i1 %27, label %33, label %28

28:                                               ; preds = %22
  %29 = load ptr, ptr %9, align 8, !tbaa !11
  %30 = getelementptr inbounds nuw %struct.t_methoddata_pos, ptr %29, i32 0, i32 5
  %31 = load i32, ptr %30, align 8, !tbaa !23
  %32 = or i32 %31, 16
  store i32 %32, ptr %30, align 8, !tbaa !23
  br label %33

33:                                               ; preds = %28, %22
  br label %34

34:                                               ; preds = %33, %17
  %35 = load ptr, ptr %9, align 8, !tbaa !11
  %36 = getelementptr inbounds nuw %struct.t_methoddata_pos, ptr %35, i32 0, i32 0
  %37 = load ptr, ptr %36, align 8, !tbaa !25
  %38 = load ptr, ptr %9, align 8, !tbaa !11
  %39 = getelementptr inbounds nuw %struct.t_methoddata_pos, ptr %38, i32 0, i32 4
  %40 = load ptr, ptr %39, align 8, !tbaa !22
  %41 = load ptr, ptr %9, align 8, !tbaa !11
  %42 = getelementptr inbounds nuw %struct.t_methoddata_pos, ptr %41, i32 0, i32 5
  %43 = load i32, ptr %42, align 8, !tbaa !23
  %44 = call noundef ptr @_ZN3gmx29PositionCalculationCollection25createCalculationFromEnumEPKci(ptr noundef nonnull align 8 dereferenceable(8) %37, ptr noundef %40, i32 noundef %43)
  %45 = load ptr, ptr %9, align 8, !tbaa !11
  %46 = getelementptr inbounds nuw %struct.t_methoddata_pos, ptr %45, i32 0, i32 2
  store ptr %44, ptr %46, align 8, !tbaa !13
  %47 = load ptr, ptr %9, align 8, !tbaa !11
  %48 = getelementptr inbounds nuw %struct.t_methoddata_pos, ptr %47, i32 0, i32 2
  %49 = load ptr, ptr %48, align 8, !tbaa !13
  %50 = load ptr, ptr %9, align 8, !tbaa !11
  %51 = getelementptr inbounds nuw %struct.t_methoddata_pos, ptr %50, i32 0, i32 1
  call void @_Z28gmx_ana_poscalc_set_maxindexP17gmx_ana_poscalc_tP15gmx_ana_index_t(ptr noundef %49, ptr noundef %51)
  call void @llvm.lifetime.end.p0(i64 8, ptr %9) #6
  ret void
}