; Function Attrs: mustprogress uwtable
define internal void @_ZL10init_kwposPK10gmx_mtop_tiP18gmx_ana_selparam_tPv(ptr readnone captures(none) %0, i32 %1, ptr noundef readonly captures(none) %2, ptr noundef initializes((32, 40)) %3) #0 {
  %5 = getelementptr inbounds nuw i8, ptr %2, i64 40
  %6 = load i32, ptr %5, align 8, !tbaa !21
  %7 = and i32 %6, 4
  %.not = icmp eq i32 %7, 0
  %8 = getelementptr inbounds nuw i8, ptr %3, i64 56
  %9 = load i32, ptr %8, align 8, !tbaa !19
  br i1 %.not, label %10, label %12

10:                                               ; preds = %4
  %11 = and i32 %9, -49
  br label %.sink.split

12:                                               ; preds = %4
  %13 = and i32 %9, 32
  %.not11 = icmp eq i32 %13, 0
  br i1 %.not11, label %14, label %16

14:                                               ; preds = %12
  %15 = or i32 %9, 16
  br label %.sink.split

.sink.split:                                      ; preds = %10, %14
  %.sink = phi i32 [ %15, %14 ], [ %11, %10 ]
  store i32 %.sink, ptr %8, align 8, !tbaa !19
  br label %16

16:                                               ; preds = %.sink.split, %12
  %17 = phi i32 [ %9, %12 ], [ %.sink, %.sink.split ]
  %18 = load ptr, ptr %3, align 8, !tbaa !20
  %19 = getelementptr inbounds nuw i8, ptr %3, i64 48
  %20 = load ptr, ptr %19, align 8, !tbaa !18
  %21 = tail call noundef ptr @_ZN3gmx29PositionCalculationCollection25createCalculationFromEnumEPKci(ptr noundef nonnull align 8 dereferenceable(8) %18, ptr noundef %20, i32 noundef %17)
  %22 = getelementptr inbounds nuw i8, ptr %3, i64 32
  store ptr %21, ptr %22, align 8, !tbaa !7
  %23 = getelementptr inbounds nuw i8, ptr %3, i64 8
  tail call void @_Z28gmx_ana_poscalc_set_maxindexP17gmx_ana_poscalc_tP15gmx_ana_index_t(ptr noundef %21, ptr noundef nonnull %23)
  ret void
}